; Function Attrs: mustprogress nounwind uwtable
define internal fastcc void @_ZN12_GLOBAL__N_18ArgumentC2EN4llvm9StringRefES2_(ptr noundef nonnull align 8 dereferenceable(90) %0, ptr %1, i64 %2, ptr %3, i64 %4) unnamed_addr #0 align 2 {
  %6 = alloca %"struct.std::__cxx11::basic_string<char>::__sv_wrapper", align 8
  %7 = alloca %"class.std::allocator", align 1
  store ptr getelementptr inbounds inrange(-16, 200) (i8, ptr @_ZTVN12_GLOBAL__N_18ArgumentE, i64 16), ptr %0, align 8
  %8 = getelementptr inbounds nuw i8, ptr %0, i64 8
  call void @_ZNSaIcEC1Ev(ptr noundef nonnull align 1 dereferenceable(1) %7) #22
  call void @llvm.lifetime.start.p0(i64 16, ptr nonnull %6)
  %9 = call { i64, ptr } @_ZNSt7__cxx1112basic_stringIcSt11char_traitsIcESaIcEE17_S_to_string_viewESt17basic_string_viewIcS2_E(i64 %2, ptr %1) #22
  %10 = extractvalue { i64, ptr } %9, 0
  %11 = extractvalue { i64, ptr } %9, 1
  call void @_ZNSt7__cxx1112basic_stringIcSt11char_traitsIcESaIcEE12__sv_wrapperC1ESt17basic_string_viewIcS2_E(ptr noundef nonnull align 8 dereferenceable(16) %6, i64 %10, ptr %11) #22
  %12 = load i64, ptr %6, align 8
  %13 = getelementptr inbounds nuw i8, ptr %6, i64 8
  %14 = load ptr, ptr %13, align 8
  call void @_ZNSt7__cxx1112basic_stringIcSt11char_traitsIcESaIcEEC2ENS4_12__sv_wrapperERKS3_(ptr noundef nonnull align 8 dereferenceable(32) %8, i64 %12, ptr %14, ptr noundef nonnull align 1 dereferenceable(1) %7) #22
  call void @llvm.lifetime.end.p0(i64 16, ptr nonnull %6)
  call void @_ZNSaIcED1Ev(ptr noundef nonnull align 1 dereferenceable(1) %7) #22
  %15 = getelementptr inbounds nuw i8, ptr %0, i64 40
  call void @_ZNSt7__cxx1112basic_stringIcSt11char_traitsIcESaIcEEC1ERKS4_(ptr noundef nonnull align 8 dereferenceable(32) %15, ptr noundef nonnull align 8 dereferenceable(32) %8) #22
  %16 = getelementptr inbounds nuw i8, ptr %0, i64 72
  store ptr %3, ptr %16, align 8
  %.sroa.2.0..sroa_idx = getelementptr inbounds i8, ptr %0, i64 80
  store i64 %4, ptr %.sroa.2.0..sroa_idx, align 8
  %17 = getelementptr inbounds nuw i8, ptr %0, i64 88
  store i8 0, ptr %17, align 8
  %18 = getelementptr inbounds nuw i8, ptr %0, i64 89
  store i8 0, ptr %18, align 1
  %19 = call noundef zeroext i1 @_ZNKSt7__cxx1112basic_stringIcSt11char_traitsIcESaIcEE5emptyEv(ptr noundef nonnull align 8 dereferenceable(32) %8) #22
  br i1 %19, label %33, label %20

20:                                               ; preds = %5
  %21 = call noundef nonnull align 1 dereferenceable(1) ptr @_ZNSt7__cxx1112basic_stringIcSt11char_traitsIcESaIcEEixEm(ptr noundef nonnull align 8 dereferenceable(32) %8, i64 noundef 0) #22
  %22 = load i8, ptr %21, align 1
  %23 = sext i8 %22 to i32
  %24 = call i32 @tolower(i32 noundef %23) #23
  %25 = trunc i32 %24 to i8
  %26 = call noundef nonnull align 1 dereferenceable(1) ptr @_ZNSt7__cxx1112basic_stringIcSt11char_traitsIcESaIcEEixEm(ptr noundef nonnull align 8 dereferenceable(32) %8, i64 noundef 0) #22
  store i8 %25, ptr %26, align 1
  %27 = call noundef nonnull align 1 dereferenceable(1) ptr @_ZNSt7__cxx1112basic_stringIcSt11char_traitsIcESaIcEEixEm(ptr noundef nonnull align 8 dereferenceable(32) %15, i64 noundef 0) #22
  %28 = load i8, ptr %27, align 1
  %29 = sext i8 %28 to i32
  %30 = call i32 @toupper(i32 noundef %29) #23
  %31 = trunc i32 %30 to i8
  %32 = call noundef nonnull align 1 dereferenceable(1) ptr @_ZNSt7__cxx1112basic_stringIcSt11char_traitsIcESaIcEEixEm(ptr noundef nonnull align 8 dereferenceable(32) %15, i64 noundef 0) #22
  store i8 %31, ptr %32, align 1
  br label %33

33:                                               ; preds = %20, %5
  %34 = call noundef i32 @_ZNKSt7__cxx1112basic_stringIcSt11char_traitsIcESaIcEE7compareEPKc(ptr noundef nonnull align 8 dereferenceable(32) %8, ptr noundef nonnull @.str.559) #22
  %35 = icmp eq i32 %34, 0
  br i1 %35, label %36, label %38

36:                                               ; preds = %33
  %37 = call noundef nonnull align 8 dereferenceable(32) ptr @_ZNSt7__cxx1112basic_stringIcSt11char_traitsIcESaIcEEaSEPKc(ptr noundef nonnull align 8 dereferenceable(32) %8, ptr noundef nonnull @.str.560) #22
  br label %38

38:                                               ; preds = %36, %33
  ret void
}